target datalayout = "e-m:e-p270:32:32-p271:32:32-p272:64:64-i64:64-i128:128-f80:128-n8:16:32:64-S128"
target triple = "x86_64-pc-linux-gnu"

%struct.vec_t = type { ptr, i32 }

; Function Attrs: null_pointer_is_valid sspstrong uwtable
define zeroext i16 @ip_checksum_tvb(ptr noundef %0, i32 noundef %1, i32 noundef %2) #2 {
  %4 = alloca ptr, align 8
  %5 = alloca i32, align 4
  %6 = alloca i32, align 4
  %7 = alloca [1 x %struct.vec_t], align 16
  store ptr %0, ptr %4, align 8
  store i32 %1, ptr %5, align 4
  store i32 %2, ptr %6, align 4
  call void @llvm.lifetime.start.p0(i64 16, ptr %7) #4
  br label %8

8:                                                ; preds = %3
  %9 = load i32, ptr %6, align 4
  %10 = getelementptr [1 x %struct.vec_t], ptr %7, i64 0, i64 0
  %11 = getelementptr inbounds nuw %struct.vec_t, ptr %10, i32 0, i32 1
  store i32 %9, ptr %11, align 8
  %12 = load ptr, ptr %4, align 8
  %13 = load i32, ptr %5, align 4
  %14 = getelementptr [1 x %struct.vec_t], ptr %7, i64 0, i64 0
  %15 = getelementptr inbounds nuw %struct.vec_t, ptr %14, i32 0, i32 1
  %16 = load i32, ptr %15, align 8
  %17 = call ptr @tvb_get_ptr(ptr noundef %12, i32 noundef %13, i32 noundef %16)
  %18 = getelementptr [1 x %struct.vec_t], ptr %7, i64 0, i64 0
  %19 = getelementptr inbounds nuw %struct.vec_t, ptr %18, i32 0, i32 0
  store ptr %17, ptr %19, align 16
  br label %20

20:                                               ; preds = %8
  br label %21

21:                                               ; preds = %20
  %22 = getelementptr [1 x %struct.vec_t], ptr %7, i64 0, i64 0
  %23 = call i32 @in_cksum_ret_partial(ptr noundef %22, i32 noundef 1, ptr noundef null)
  %24 = trunc i32 %23 to i16
  call void @llvm.lifetime.end.p0(i64 16, ptr %7) #4
  ret i16 %24
}