; Function Attrs: null_pointer_is_valid sspstrong uwtable
define zeroext i16 @ip_checksum_tvb(ptr noundef %0, i32 noundef %1, i32 noundef %2) local_unnamed_addr #3 {
  %4 = alloca [1 x %struct.vec_t], align 16
  call void @llvm.lifetime.start.p0(i64 16, ptr nonnull %4) #7
  %5 = getelementptr inbounds nuw i8, ptr %4, i64 8
  store i32 %2, ptr %5, align 8
  %6 = tail call ptr @tvb_get_ptr(ptr noundef %0, i32 noundef %1, i32 noundef %2)
  store ptr %6, ptr %4, align 16
  %7 = call i32 @in_cksum_ret_partial(ptr noundef nonnull %4, i32 noundef 1, ptr noundef null)
  %8 = trunc nuw i32 %7 to i16
  call void @llvm.lifetime.end.p0(i64 16, ptr nonnull %4) #7
  ret i16 %8
}